; ModuleID = '31/1302.c'
source_filename = "31/1302.c"
target datalayout = "e-m:e-p270:32:32-p271:32:32-p272:64:64-i64:64-f80:128-n8:16:32:64-S128"
target triple = "x86_64-pc-linux-gnu"

%struct.student = type { [10 x i8], [20 x i8], [2 x i8], i32, [10 x i8], [20 x i8], %struct.student* }

@.str = private unnamed_addr constant [3 x i8] c"%s\00", align 1
@.str.1 = private unnamed_addr constant [11 x i8] c"%s%s%d%s%s\00", align 1
@.str.2 = private unnamed_addr constant [19 x i8] c"%s %s %s %d %s %s\0A\00", align 1

; Function Attrs: noinline nounwind uwtable
define dso_local %struct.student* @creat() #0 {
  %1 = alloca %struct.student*, align 8
  %2 = alloca %struct.student*, align 8
  %3 = alloca %struct.student*, align 8
  %4 = alloca i32, align 4
  store i32 0, i32* %4, align 4
  %5 = call noalias i8* @malloc(i64 100) #3
  %6 = bitcast i8* %5 to %struct.student*
  store %struct.student* %6, %struct.student** %3, align 8
  store %struct.student* %6, %struct.student** %2, align 8
  store %struct.student* null, %struct.student** %1, align 8
  br label %7

7:                                                ; preds = %53, %0
  %8 = load %struct.student*, %struct.student** %2, align 8
  %9 = getelementptr inbounds %struct.student, %struct.student* %8, i32 0, i32 0
  %10 = getelementptr inbounds [10 x i8], [10 x i8]* %9, i64 0, i64 0
  %11 = call i32 (i8*, ...) @__isoc99_scanf(i8* getelementptr inbounds ([3 x i8], [3 x i8]* @.str, i64 0, i64 0), i8* %10)
  %12 = icmp ne i32 %11, 0
  br i1 %12, label %13, label %27

13:                                               ; preds = %7
  %14 = load %struct.student*, %struct.student** %2, align 8
  %15 = getelementptr inbounds %struct.student, %struct.student* %14, i32 0, i32 0
  %16 = getelementptr inbounds [10 x i8], [10 x i8]* %15, i64 0, i64 0
  %17 = load i8, i8* %16, align 8
  %18 = sext i8 %17 to i32
  %19 = icmp sge i32 %18, 48
  br i1 %19, label %20, label %27

20:                                               ; preds = %13
  %21 = load %struct.student*, %struct.student** %2, align 8
  %22 = getelementptr inbounds %struct.student, %struct.student* %21, i32 0, i32 0
  %23 = getelementptr inbounds [10 x i8], [10 x i8]* %22, i64 0, i64 0
  %24 = load i8, i8* %23, align 8
  %25 = sext i8 %24 to i32
  %26 = icmp sle i32 %25, 57
  br label %27

27:                                               ; preds = %20, %13, %7
  %28 = phi i1 [ false, %13 ], [ false, %7 ], [ %26, %20 ]
  br i1 %28, label %29, label %59

29:                                               ; preds = %27
  %30 = load %struct.student*, %struct.student** %2, align 8
  %31 = getelementptr inbounds %struct.student, %struct.student* %30, i32 0, i32 1
  %32 = getelementptr inbounds [20 x i8], [20 x i8]* %31, i64 0, i64 0
  %33 = load %struct.student*, %struct.student** %2, align 8
  %34 = getelementptr inbounds %struct.student, %struct.student* %33, i32 0, i32 2
  %35 = getelementptr inbounds [2 x i8], [2 x i8]* %34, i64 0, i64 0
  %36 = load %struct.student*, %struct.student** %2, align 8
  %37 = getelementptr inbounds %struct.student, %struct.student* %36, i32 0, i32 3
  %38 = load %struct.student*, %struct.student** %2, align 8
  %39 = getelementptr inbounds %struct.student, %struct.student* %38, i32 0, i32 4
  %40 = getelementptr inbounds [10 x i8], [10 x i8]* %39, i64 0, i64 0
  %41 = load %struct.student*, %struct.student** %2, align 8
  %42 = getelementptr inbounds %struct.student, %struct.student* %41, i32 0, i32 5
  %43 = getelementptr inbounds [20 x i8], [20 x i8]* %42, i64 0, i64 0
  %44 = call i32 (i8*, ...) @__isoc99_scanf(i8* getelementptr inbounds ([11 x i8], [11 x i8]* @.str.1, i64 0, i64 0), i8* %32, i8* %35, i32* %37, i8* %40, i8* %43)
  %45 = load i32, i32* %4, align 4
  %46 = icmp eq i32 %45, 0
  br i1 %46, label %47, label %49

47:                                               ; preds = %29
  %48 = load %struct.student*, %struct.student** %2, align 8
  store %struct.student* %48, %struct.student** %1, align 8
  br label %53

49:                                               ; preds = %29
  %50 = load %struct.student*, %struct.student** %2, align 8
  %51 = load %struct.student*, %struct.student** %3, align 8
  %52 = getelementptr inbounds %struct.student, %struct.student* %51, i32 0, i32 6
  store %struct.student* %50, %struct.student** %52, align 8
  br label %53

53:                                               ; preds = %49, %47
  %54 = load %struct.student*, %struct.student** %2, align 8
  store %struct.student* %54, %struct.student** %3, align 8
  %55 = call noalias i8* @malloc(i64 100) #3
  %56 = bitcast i8* %55 to %struct.student*
  store %struct.student* %56, %struct.student** %2, align 8
  %57 = load i32, i32* %4, align 4
  %58 = add nsw i32 %57, 1
  store i32 %58, i32* %4, align 4
  br label %7

59:                                               ; preds = %27
  %60 = load %struct.student*, %struct.student** %3, align 8
  %61 = getelementptr inbounds %struct.student, %struct.student* %60, i32 0, i32 6
  store %struct.student* null, %struct.student** %61, align 8
  %62 = load %struct.student*, %struct.student** %1, align 8
  ret %struct.student* %62
}

; Function Attrs: nounwind
declare dso_local noalias i8* @malloc(i64) #1

declare dso_local i32 @__isoc99_scanf(i8*, ...) #2

; Function Attrs: noinline nounwind uwtable
define dso_local void @turn(%struct.student* %0) #0 {
  %2 = alloca %struct.student*, align 8
  %3 = alloca %struct.student*, align 8
  %4 = alloca %struct.student*, align 8
  store %struct.student* %0, %struct.student** %2, align 8
  %5 = load %struct.student*, %struct.student** %2, align 8
  store %struct.student* %5, %struct.student** %3, align 8
  store %struct.student* %5, %struct.student** %4, align 8
  br label %6

6:                                                ; preds = %22, %1
  %7 = load %struct.student*, %struct.student** %2, align 8
  %8 = getelementptr inbounds %struct.student, %struct.student* %7, i32 0, i32 6
  %9 = load %struct.student*, %struct.student** %8, align 8
  %10 = icmp ne %struct.student* %9, null
  br i1 %10, label %11, label %45

11:                                               ; preds = %6
  br label %12

12:                                               ; preds = %17, %11
  %13 = load %struct.student*, %struct.student** %3, align 8
  %14 = getelementptr inbounds %struct.student, %struct.student* %13, i32 0, i32 6
  %15 = load %struct.student*, %struct.student** %14, align 8
  %16 = icmp ne %struct.student* %15, null
  br i1 %16, label %17, label %22

17:                                               ; preds = %12
  %18 = load %struct.student*, %struct.student** %3, align 8
  store %struct.student* %18, %struct.student** %4, align 8
  %19 = load %struct.student*, %struct.student** %3, align 8
  %20 = getelementptr inbounds %struct.student, %struct.student* %19, i32 0, i32 6
  %21 = load %struct.student*, %struct.student** %20, align 8
  store %struct.student* %21, %struct.student** %3, align 8
  br label %12

22:                                               ; preds = %12
  %23 = load %struct.student*, %struct.student** %3, align 8
  %24 = getelementptr inbounds %struct.student, %struct.student* %23, i32 0, i32 0
  %25 = getelementptr inbounds [10 x i8], [10 x i8]* %24, i64 0, i64 0
  %26 = load %struct.student*, %struct.student** %3, align 8
  %27 = getelementptr inbounds %struct.student, %struct.student* %26, i32 0, i32 1
  %28 = getelementptr inbounds [20 x i8], [20 x i8]* %27, i64 0, i64 0
  %29 = load %struct.student*, %struct.student** %3, align 8
  %30 = getelementptr inbounds %struct.student, %struct.student* %29, i32 0, i32 2
  %31 = getelementptr inbounds [2 x i8], [2 x i8]* %30, i64 0, i64 0
  %32 = load %struct.student*, %struct.student** %3, align 8
  %33 = getelementptr inbounds %struct.student, %struct.student* %32, i32 0, i32 3
  %34 = load i32, i32* %33, align 8
  %35 = load %struct.student*, %struct.student** %3, align 8
  %36 = getelementptr inbounds %struct.student, %struct.student* %35, i32 0, i32 4
  %37 = getelementptr inbounds [10 x i8], [10 x i8]* %36, i64 0, i64 0
  %38 = load %struct.student*, %struct.student** %3, align 8
  %39 = getelementptr inbounds %struct.student, %struct.student* %38, i32 0, i32 5
  %40 = getelementptr inbounds [20 x i8], [20 x i8]* %39, i64 0, i64 0
  %41 = call i32 (i8*, ...) @printf(i8* getelementptr inbounds ([19 x i8], [19 x i8]* @.str.2, i64 0, i64 0), i8* %25, i8* %28, i8* %31, i32 %34, i8* %37, i8* %40)
  %42 = load %struct.student*, %struct.student** %4, align 8
  %43 = getelementptr inbounds %struct.student, %struct.student* %42, i32 0, i32 6
  store %struct.student* null, %struct.student** %43, align 8
  %44 = load %struct.student*, %struct.student** %2, align 8
  store %struct.student* %44, %struct.student** %3, align 8
  br label %6

45:                                               ; preds = %6
  %46 = load %struct.student*, %struct.student** %3, align 8
  %47 = getelementptr inbounds %struct.student, %struct.student* %46, i32 0, i32 0
  %48 = getelementptr inbounds [10 x i8], [10 x i8]* %47, i64 0, i64 0
  %49 = load %struct.student*, %struct.student** %3, align 8
  %50 = getelementptr inbounds %struct.student, %struct.student* %49, i32 0, i32 1
  %51 = getelementptr inbounds [20 x i8], [20 x i8]* %50, i64 0, i64 0
  %52 = load %struct.student*, %struct.student** %3, align 8
  %53 = getelementptr inbounds %struct.student, %struct.student* %52, i32 0, i32 2
  %54 = getelementptr inbounds [2 x i8], [2 x i8]* %53, i64 0, i64 0
  %55 = load %struct.student*, %struct.student** %3, align 8
  %56 = getelementptr inbounds %struct.student, %struct.student* %55, i32 0, i32 3
  %57 = load i32, i32* %56, align 8
  %58 = load %struct.student*, %struct.student** %3, align 8
  %59 = getelementptr inbounds %struct.student, %struct.student* %58, i32 0, i32 4
  %60 = getelementptr inbounds [10 x i8], [10 x i8]* %59, i64 0, i64 0
  %61 = load %struct.student*, %struct.student** %3, align 8
  %62 = getelementptr inbounds %struct.student, %struct.student* %61, i32 0, i32 5
  %63 = getelementptr inbounds [20 x i8], [20 x i8]* %62, i64 0, i64 0
  %64 = call i32 (i8*, ...) @printf(i8* getelementptr inbounds ([19 x i8], [19 x i8]* @.str.2, i64 0, i64 0), i8* %48, i8* %51, i8* %54, i32 %57, i8* %60, i8* %63)
  ret void
}

declare dso_local i32 @printf(i8*, ...) #2

; Function Attrs: noinline nounwind uwtable
define dso_local void @main() #0 {
  %1 = alloca %struct.student*, align 8
  %2 = call %struct.student* @creat()
  store %struct.student* %2, %struct.student** %1, align 8
  %3 = load %struct.student*, %struct.student** %1, align 8
  call void @turn(%struct.student* %3)
  ret void
}


!llvm.module.flags = !{!0}
!llvm.ident = !{!1}

!0 = !{i32 1, !"wchar_size", i32 4}
!1 = !{!"clang version 10.0.0-4ubuntu1 "}
